target datalayout = "e-m:e-p270:32:32-p271:32:32-p272:64:64-i64:64-i128:128-f80:128-n8:16:32:64-S128"
target triple = "x86_64-unknown-linux-gnu"

%"struct.node::AssertionInfo" = type { ptr, ptr, ptr }
%"class.node::SigintWatchdogHelper" = type <{ i32, [4 x i8], %"class.node::MutexBase", %"class.node::MutexBase", %"class.std::vector", i8, [7 x i8], i64, %union.sem_t, i8, i8, [6 x i8] }>
%"class.node::MutexBase" = type { %union.pthread_mutex_t }
%union.pthread_mutex_t = type { %struct.__pthread_mutex_s }
%struct.__pthread_mutex_s = type { i32, i32, i32, i32, i32, i16, i16, %struct.__pthread_internal_list }
%struct.__pthread_internal_list = type { ptr, ptr }
%"class.std::vector" = type { %"struct.std::_Vector_base" }
%"struct.std::_Vector_base" = type { %"struct.std::_Vector_base<node::SigintWatchdogBase *, std::allocator<node::SigintWatchdogBase *>>::_Vector_impl" }
%"struct.std::_Vector_base<node::SigintWatchdogBase *, std::allocator<node::SigintWatchdogBase *>>::_Vector_impl" = type { %"struct.std::_Vector_base<node::SigintWatchdogBase *, std::allocator<node::SigintWatchdogBase *>>::_Vector_impl_data" }
%"struct.std::_Vector_base<node::SigintWatchdogBase *, std::allocator<node::SigintWatchdogBase *>>::_Vector_impl_data" = type { ptr, ptr, ptr }
%union.sem_t = type { i64, [24 x i8] }
%"class.node::MutexBase<node::LibuvMutexTraits>::ScopedLock" = type { ptr }
%struct.__sigset_t = type { [16 x i64] }

@_ZZN4node20SigintWatchdogHelper5StartEvE4args = internal constant %"struct.node::AssertionInfo" { ptr @.str.23, ptr @.str.24, ptr @.str.25 }, align 8
@_ZZN4node20SigintWatchdogHelper5StartEvE4args_0 = internal constant %"struct.node::AssertionInfo" { ptr @.str.26, ptr @.str.27, ptr @.str.25 }, align 8
@_ZZN4node20SigintWatchdogHelper5StartEvE4args_1 = internal constant %"struct.node::AssertionInfo" { ptr @.str.28, ptr @.str.29, ptr @.str.25 }, align 8

; Function Attrs: mustprogress nounwind uwtable
define linkonce_odr dso_local void @_ZN4node16LibuvMutexTraits12mutex_unlockEP15pthread_mutex_t(ptr noundef %mutex) #4 comdat align 2 {
entry:
  %mutex.addr = alloca ptr, align 8
  store ptr %mutex, ptr %mutex.addr, align 8
  %0 = load ptr, ptr %mutex.addr, align 8
  call void @uv_mutex_unlock(ptr noundef %0)
  ret void
}

; Function Attrs: mustprogress nounwind uwtable
define linkonce_odr dso_local void @_ZN4node16LibuvMutexTraits10mutex_lockEP15pthread_mutex_t(ptr noundef %mutex) #4 comdat align 2 {
entry:
  %mutex.addr = alloca ptr, align 8
  store ptr %mutex, ptr %mutex.addr, align 8
  %0 = load ptr, ptr %mutex.addr, align 8
  call void @uv_mutex_lock(ptr noundef %0)
  ret void
}

; Function Attrs: mustprogress nounwind uwtable
define linkonce_odr dso_local void @_ZN4node9MutexBaseINS_16LibuvMutexTraitsEE10ScopedLockD2Ev(ptr noundef nonnull align 8 dereferenceable(8) %this) unnamed_addr #4 comdat align 2 {
entry:
  %this.addr = alloca ptr, align 8
  store ptr %this, ptr %this.addr, align 8
  %this1 = load ptr, ptr %this.addr, align 8
  %mutex_ = getelementptr inbounds %"class.node::MutexBase<node::LibuvMutexTraits>::ScopedLock", ptr %this1, i32 0, i32 0
  %0 = load ptr, ptr %mutex_, align 8
  %mutex_2 = getelementptr inbounds %"class.node::MutexBase", ptr %0, i32 0, i32 0
  call void @_ZN4node16LibuvMutexTraits12mutex_unlockEP15pthread_mutex_t(ptr noundef %mutex_2)
  ret void
}

; Function Attrs: mustprogress nounwind uwtable
define linkonce_odr dso_local void @_ZN4node9MutexBaseINS_16LibuvMutexTraitsEE10ScopedLockC2ERKS2_(ptr noundef nonnull align 8 dereferenceable(8) %this, ptr noundef nonnull align 8 dereferenceable(40) %mutex) unnamed_addr #4 comdat align 2 {
entry:
  %this.addr = alloca ptr, align 8
  %mutex.addr = alloca ptr, align 8
  store ptr %this, ptr %this.addr, align 8
  store ptr %mutex, ptr %mutex.addr, align 8
  %this1 = load ptr, ptr %this.addr, align 8
  %mutex_ = getelementptr inbounds %"class.node::MutexBase<node::LibuvMutexTraits>::ScopedLock", ptr %this1, i32 0, i32 0
  %0 = load ptr, ptr %mutex.addr, align 8
  store ptr %0, ptr %mutex_, align 8
  %mutex_2 = getelementptr inbounds %"class.node::MutexBase<node::LibuvMutexTraits>::ScopedLock", ptr %this1, i32 0, i32 0
  %1 = load ptr, ptr %mutex_2, align 8
  %mutex_3 = getelementptr inbounds %"class.node::MutexBase", ptr %1, i32 0, i32 0
  call void @_ZN4node16LibuvMutexTraits10mutex_lockEP15pthread_mutex_t(ptr noundef %mutex_3)
  ret void
}

; Function Attrs: mustprogress nounwind uwtable
define dso_local noundef i32 @_ZN4node20SigintWatchdogHelper5StartEv(ptr noundef nonnull align 8 dereferenceable(162) %this) #4 align 2 {
entry:
  %retval = alloca i32, align 4
  %this.addr = alloca ptr, align 8
  %lock = alloca %"class.node::MutexBase<node::LibuvMutexTraits>::ScopedLock", align 8
  %cleanup.dest.slot = alloca i32, align 4
  %sigmask = alloca %struct.__sigset_t, align 8
  %savemask = alloca %struct.__sigset_t, align 8
  %ret = alloca i32, align 4
  store ptr %this, ptr %this.addr, align 8
  %this1 = load ptr, ptr %this.addr, align 8
  %mutex_ = getelementptr inbounds %"class.node::SigintWatchdogHelper", ptr %this1, i32 0, i32 2
  call void @_ZN4node9MutexBaseINS_16LibuvMutexTraitsEE10ScopedLockC2ERKS2_(ptr noundef nonnull align 8 dereferenceable(8) %lock, ptr noundef nonnull align 8 dereferenceable(40) %mutex_)
  %start_stop_count_ = getelementptr inbounds %"class.node::SigintWatchdogHelper", ptr %this1, i32 0, i32 0
  %0 = load i32, ptr %start_stop_count_, align 8
  %inc = add nsw i32 %0, 1
  store i32 %inc, ptr %start_stop_count_, align 8
  %cmp = icmp sgt i32 %0, 0
  br i1 %cmp, label %if.then, label %if.end

if.then:                                          ; preds = %entry
  store i32 0, ptr %retval, align 4
  store i32 1, ptr %cleanup.dest.slot, align 4
  br label %cleanup

if.end:                                           ; preds = %entry
  br label %do.body

do.body:                                          ; preds = %if.end
  %has_running_thread_ = getelementptr inbounds %"class.node::SigintWatchdogHelper", ptr %this1, i32 0, i32 9
  %1 = load i8, ptr %has_running_thread_, align 8
  %tobool = trunc i8 %1 to i1
  %conv = zext i1 %tobool to i32
  %cmp2 = icmp eq i32 %conv, 0
  %lnot = xor i1 %cmp2, true
  %lnot3 = xor i1 %lnot, true
  %lnot4 = xor i1 %lnot3, true
  br i1 %lnot4, label %if.then6, label %if.end8

if.then6:                                         ; preds = %do.body
  br label %do.body7

do.body7:                                         ; preds = %if.then6
  call void @_ZN4node6AssertERKNS_13AssertionInfoE(ptr noundef nonnull align 8 dereferenceable(24) @_ZZN4node20SigintWatchdogHelper5StartEvE4args)
  call void @abort() #14
  unreachable

do.cond:                                          ; No predecessors!
  br label %do.end

do.end:                                           ; preds = %do.cond
  br label %if.end8

if.end8:                                          ; preds = %do.end, %do.body
  br label %do.cond9

do.cond9:                                         ; preds = %if.end8
  br label %do.end10

do.end10:                                         ; preds = %do.cond9
  %has_pending_signal_ = getelementptr inbounds %"class.node::SigintWatchdogHelper", ptr %this1, i32 0, i32 5
  store i8 0, ptr %has_pending_signal_, align 8
  %stopping_ = getelementptr inbounds %"class.node::SigintWatchdogHelper", ptr %this1, i32 0, i32 10
  store i8 0, ptr %stopping_, align 1
  %call = call i32 @sigfillset(ptr noundef %sigmask) #3
  br label %do.body11

do.body11:                                        ; preds = %do.end10
  %call12 = call i32 @pthread_sigmask(i32 noundef 2, ptr noundef %sigmask, ptr noundef %savemask) #3
  %cmp13 = icmp eq i32 0, %call12
  %lnot14 = xor i1 %cmp13, true
  %lnot15 = xor i1 %lnot14, true
  %lnot16 = xor i1 %lnot15, true
  br i1 %lnot16, label %if.then18, label %if.end22

if.then18:                                        ; preds = %do.body11
  br label %do.body19

do.body19:                                        ; preds = %if.then18
  call void @_ZN4node6AssertERKNS_13AssertionInfoE(ptr noundef nonnull align 8 dereferenceable(24) @_ZZN4node20SigintWatchdogHelper5StartEvE4args_0)
  call void @abort() #14
  unreachable

do.cond20:                                        ; No predecessors!
  br label %do.end21

do.end21:                                         ; preds = %do.cond20
  br label %if.end22

if.end22:                                         ; preds = %do.end21, %do.body11
  br label %do.cond23

do.cond23:                                        ; preds = %if.end22
  br label %do.end24

do.end24:                                         ; preds = %do.cond23
  call void @llvm.memcpy.p0.p0.i64(ptr align 8 %sigmask, ptr align 8 %savemask, i64 128, i1 false)
  %thread_ = getelementptr inbounds %"class.node::SigintWatchdogHelper", ptr %this1, i32 0, i32 7
  %call25 = call i32 @pthread_create(ptr noundef %thread_, ptr noundef null, ptr noundef @_ZN4node20SigintWatchdogHelper17RunSigintWatchdogEPv, ptr noundef null) #3
  store i32 %call25, ptr %ret, align 4
  br label %do.body26

do.body26:                                        ; preds = %do.end24
  %call27 = call i32 @pthread_sigmask(i32 noundef 2, ptr noundef %sigmask, ptr noundef null) #3
  %cmp28 = icmp eq i32 0, %call27
  %lnot29 = xor i1 %cmp28, true
  %lnot30 = xor i1 %lnot29, true
  %lnot31 = xor i1 %lnot30, true
  br i1 %lnot31, label %if.then33, label %if.end37

if.then33:                                        ; preds = %do.body26
  br label %do.body34

do.body34:                                        ; preds = %if.then33
  call void @_ZN4node6AssertERKNS_13AssertionInfoE(ptr noundef nonnull align 8 dereferenceable(24) @_ZZN4node20SigintWatchdogHelper5StartEvE4args_1)
  call void @abort() #14
  unreachable

do.cond35:                                        ; No predecessors!
  br label %do.end36

do.end36:                                         ; preds = %do.cond35
  br label %if.end37

if.end37:                                         ; preds = %do.end36, %do.body26
  br label %do.cond38

do.cond38:                                        ; preds = %if.end37
  br label %do.end39

do.end39:                                         ; preds = %do.cond38
  %2 = load i32, ptr %ret, align 4
  %cmp40 = icmp ne i32 %2, 0
  br i1 %cmp40, label %if.then41, label %if.end42

if.then41:                                        ; preds = %do.end39
  %3 = load i32, ptr %ret, align 4
  store i32 %3, ptr %retval, align 4
  store i32 1, ptr %cleanup.dest.slot, align 4
  br label %cleanup

if.end42:                                         ; preds = %do.end39
  %has_running_thread_43 = getelementptr inbounds %"class.node::SigintWatchdogHelper", ptr %this1, i32 0, i32 9
  store i8 1, ptr %has_running_thread_43, align 8
  call void @_ZN4node21RegisterSignalHandlerEiPFviP9siginfo_tPvEb(i32 noundef 2, ptr noundef @_ZN4node20SigintWatchdogHelper12HandleSignalEiP9siginfo_tPv, i1 noundef zeroext false)
  store i32 0, ptr %retval, align 4
  store i32 1, ptr %cleanup.dest.slot, align 4
  br label %cleanup

cleanup:                                          ; preds = %if.end42, %if.then41, %if.then
  call void @_ZN4node9MutexBaseINS_16LibuvMutexTraitsEE10ScopedLockD2Ev(ptr noundef nonnull align 8 dereferenceable(8) %lock) #3
  %4 = load i32, ptr %retval, align 4
  ret i32 %4
}