; Function Attrs: mustprogress nounwind uwtable
define dso_local noundef i32 @_ZN4node20SigintWatchdogHelper5StartEv(ptr noundef nonnull align 8 dereferenceable(162) %this) local_unnamed_addr #3 align 2 {
entry:
  %sigmask = alloca %struct.__sigset_t, align 8
  %savemask = alloca %struct.__sigset_t, align 8
  %mutex_ = getelementptr inbounds i8, ptr %this, i64 8
  tail call void @uv_mutex_lock(ptr noundef nonnull %mutex_) #15
  %0 = load i32, ptr %this, align 8
  %inc = add nsw i32 %0, 1
  store i32 %inc, ptr %this, align 8
  %cmp = icmp sgt i32 %0, 0
  br i1 %cmp, label %cleanup, label %do.body

do.body:                                          ; preds = %entry
  %has_running_thread_ = getelementptr inbounds i8, ptr %this, i64 160
  %1 = load i8, ptr %has_running_thread_, align 8
  %2 = and i8 %1, 1
  %cmp2.not = icmp eq i8 %2, 0
  br i1 %cmp2.not, label %do.end10, label %do.body7

do.body7:                                         ; preds = %do.body
  tail call void @_ZN4node6AssertERKNS_13AssertionInfoE(ptr noundef nonnull align 8 dereferenceable(24) @_ZZN4node20SigintWatchdogHelper5StartEvE4args) #15
  tail call void @abort() #16
  unreachable

do.end10:                                         ; preds = %do.body
  %has_pending_signal_ = getelementptr inbounds i8, ptr %this, i64 112
  store i8 0, ptr %has_pending_signal_, align 8
  %stopping_ = getelementptr inbounds i8, ptr %this, i64 161
  store i8 0, ptr %stopping_, align 1
  %call = call i32 @sigfillset(ptr noundef nonnull %sigmask) #15
  %call12 = call i32 @pthread_sigmask(i32 noundef 2, ptr noundef nonnull %sigmask, ptr noundef nonnull %savemask) #15
  %cmp13.not = icmp eq i32 %call12, 0
  br i1 %cmp13.not, label %do.end24, label %do.body19

do.body19:                                        ; preds = %do.end10
  call void @_ZN4node6AssertERKNS_13AssertionInfoE(ptr noundef nonnull align 8 dereferenceable(24) @_ZZN4node20SigintWatchdogHelper5StartEvE4args_0) #15
  call void @abort() #16
  unreachable

do.end24:                                         ; preds = %do.end10
  call void @llvm.memcpy.p0.p0.i64(ptr noundef nonnull align 8 dereferenceable(128) %sigmask, ptr noundef nonnull align 8 dereferenceable(128) %savemask, i64 128, i1 false)
  %thread_ = getelementptr inbounds i8, ptr %this, i64 120
  %call25 = call i32 @pthread_create(ptr noundef nonnull %thread_, ptr noundef null, ptr noundef nonnull @_ZN4node20SigintWatchdogHelper17RunSigintWatchdogEPv, ptr noundef null) #15
  %call27 = call i32 @pthread_sigmask(i32 noundef 2, ptr noundef nonnull %sigmask, ptr noundef null) #15
  %cmp28.not = icmp eq i32 %call27, 0
  br i1 %cmp28.not, label %do.end39, label %do.body34

do.body34:                                        ; preds = %do.end24
  call void @_ZN4node6AssertERKNS_13AssertionInfoE(ptr noundef nonnull align 8 dereferenceable(24) @_ZZN4node20SigintWatchdogHelper5StartEvE4args_1) #15
  call void @abort() #16
  unreachable

do.end39:                                         ; preds = %do.end24
  %cmp40.not = icmp eq i32 %call25, 0
  br i1 %cmp40.not, label %if.end42, label %cleanup

if.end42:                                         ; preds = %do.end39
  store i8 1, ptr %has_running_thread_, align 8
  call void @_ZN4node21RegisterSignalHandlerEiPFviP9siginfo_tPvEb(i32 noundef 2, ptr noundef nonnull @_ZN4node20SigintWatchdogHelper12HandleSignalEiP9siginfo_tPv, i1 noundef zeroext false) #15
  br label %cleanup

cleanup:                                          ; preds = %do.end39, %entry, %if.end42
  %retval.0 = phi i32 [ 0, %if.end42 ], [ 0, %entry ], [ %call25, %do.end39 ]
  call void @uv_mutex_unlock(ptr noundef nonnull %mutex_) #15
  ret i32 %retval.0
}